target datalayout = "e-m:e-p270:32:32-p271:32:32-p272:64:64-i64:64-i128:128-f80:128-n8:16:32:64-S128"
target triple = "x86_64-pc-linux-gnu"

%"struct.vcpkg::StringView" = type { ptr, i64 }
%"class.std::vector.220" = type { %"struct.std::_Vector_base.221" }
%"struct.std::_Vector_base.221" = type { %"struct.std::_Vector_base<vcpkg::StringView, std::allocator<vcpkg::StringView>>::_Vector_impl" }
%"struct.std::_Vector_base<vcpkg::StringView, std::allocator<vcpkg::StringView>>::_Vector_impl" = type { %"struct.std::_Vector_base<vcpkg::StringView, std::allocator<vcpkg::StringView>>::_Vector_impl_data" }
%"struct.std::_Vector_base<vcpkg::StringView, std::allocator<vcpkg::StringView>>::_Vector_impl_data" = type { ptr, ptr, ptr }
%"struct.vcpkg::Span.160" = type { ptr, i64 }

@__dso_handle = external hidden global i8
@_ZZNK12_GLOBAL__N_129GitVersionDbEntryDeserializer12valid_fieldsEvE5u_git = internal constant [1 x %"struct.vcpkg::StringView"] [%"struct.vcpkg::StringView" { ptr @.str.34, i64 8 }], align 16
@_ZZNK12_GLOBAL__N_129GitVersionDbEntryDeserializer12valid_fieldsEvE5t_git = internal global %"class.std::vector.220" zeroinitializer, align 8
@_ZGVZNK12_GLOBAL__N_129GitVersionDbEntryDeserializer12valid_fieldsEvE5t_git = internal global i64 0, align 8

; Function Attrs: mustprogress nounwind uwtable
define linkonce_odr dso_local noundef ptr @_ZNKSt6vectorIN5vcpkg10StringViewESaIS1_EE11_M_data_ptrIS1_EEPT_S6_(ptr noundef nonnull align 8 dereferenceable(24) %0, ptr noundef %1) #1 comdat align 2 {
  %3 = alloca ptr, align 8
  %4 = alloca ptr, align 8
  store ptr %0, ptr %3, align 8
  store ptr %1, ptr %4, align 8
  %5 = load ptr, ptr %4, align 8
  ret ptr %5
}

; Function Attrs: mustprogress nounwind uwtable
define linkonce_odr dso_local void @_ZN5vcpkg4SpanIKNS_10StringViewEEC2EPS2_m(ptr noundef nonnull align 8 dereferenceable(16) %0, ptr noundef %1, i64 noundef %2) unnamed_addr #1 comdat align 2 {
  %4 = alloca ptr, align 8
  %5 = alloca ptr, align 8
  %6 = alloca i64, align 8
  store ptr %0, ptr %4, align 8
  store ptr %1, ptr %5, align 8
  store i64 %2, ptr %6, align 8
  %7 = load ptr, ptr %4, align 8
  %8 = getelementptr inbounds %"struct.vcpkg::Span.160", ptr %7, i32 0, i32 0
  %9 = load ptr, ptr %5, align 8
  store ptr %9, ptr %8, align 8
  %10 = getelementptr inbounds %"struct.vcpkg::Span.160", ptr %7, i32 0, i32 1
  %11 = load i64, ptr %6, align 8
  store i64 %11, ptr %10, align 8
  ret void
}

; Function Attrs: mustprogress nounwind uwtable
define linkonce_odr dso_local noundef i64 @_ZNKSt6vectorIN5vcpkg10StringViewESaIS1_EE4sizeEv(ptr noundef nonnull align 8 dereferenceable(24) %0) #1 comdat align 2 {
  %2 = alloca ptr, align 8
  store ptr %0, ptr %2, align 8
  %3 = load ptr, ptr %2, align 8
  %4 = getelementptr inbounds %"struct.std::_Vector_base.221", ptr %3, i32 0, i32 0
  %5 = getelementptr inbounds %"struct.std::_Vector_base<vcpkg::StringView, std::allocator<vcpkg::StringView>>::_Vector_impl_data", ptr %4, i32 0, i32 1
  %6 = load ptr, ptr %5, align 8
  %7 = getelementptr inbounds %"struct.std::_Vector_base.221", ptr %3, i32 0, i32 0
  %8 = getelementptr inbounds %"struct.std::_Vector_base<vcpkg::StringView, std::allocator<vcpkg::StringView>>::_Vector_impl_data", ptr %7, i32 0, i32 0
  %9 = load ptr, ptr %8, align 8
  %10 = ptrtoint ptr %6 to i64
  %11 = ptrtoint ptr %9 to i64
  %12 = sub i64 %10, %11
  %13 = sdiv exact i64 %12, 16
  ret i64 %13
}

; Function Attrs: mustprogress nounwind uwtable
define linkonce_odr dso_local noundef ptr @_ZNKSt6vectorIN5vcpkg10StringViewESaIS1_EE4dataEv(ptr noundef nonnull align 8 dereferenceable(24) %0) #1 comdat align 2 {
  %2 = alloca ptr, align 8
  store ptr %0, ptr %2, align 8
  %3 = load ptr, ptr %2, align 8
  %4 = getelementptr inbounds %"struct.std::_Vector_base.221", ptr %3, i32 0, i32 0
  %5 = getelementptr inbounds %"struct.std::_Vector_base<vcpkg::StringView, std::allocator<vcpkg::StringView>>::_Vector_impl_data", ptr %4, i32 0, i32 0
  %6 = load ptr, ptr %5, align 8
  %7 = call noundef ptr @_ZNKSt6vectorIN5vcpkg10StringViewESaIS1_EE11_M_data_ptrIS1_EEPT_S6_(ptr noundef nonnull align 8 dereferenceable(24) %3, ptr noundef %6) #2
  ret ptr %7
}

; Function Attrs: mustprogress nounwind uwtable
define linkonce_odr dso_local void @_ZN5vcpkg4SpanIKNS_10StringViewEEC2IRKSt6vectorIS1_SaIS1_EEPS2_vEEOT_(ptr noundef nonnull align 8 dereferenceable(16) %0, ptr noundef nonnull align 8 dereferenceable(24) %1) unnamed_addr #1 comdat align 2 {
  %3 = alloca ptr, align 8
  %4 = alloca ptr, align 8
  store ptr %0, ptr %3, align 8
  store ptr %1, ptr %4, align 8
  %5 = load ptr, ptr %3, align 8
  %6 = load ptr, ptr %4, align 8
  %7 = call noundef ptr @_ZNKSt6vectorIN5vcpkg10StringViewESaIS1_EE4dataEv(ptr noundef nonnull align 8 dereferenceable(24) %6) #2
  %8 = load ptr, ptr %4, align 8
  %9 = call noundef i64 @_ZNKSt6vectorIN5vcpkg10StringViewESaIS1_EE4sizeEv(ptr noundef nonnull align 8 dereferenceable(24) %8) #2
  call void @_ZN5vcpkg4SpanIKNS_10StringViewEEC2EPS2_m(ptr noundef nonnull align 8 dereferenceable(16) %5, ptr noundef %7, i64 noundef %9) #2
  ret void
}

; Function Attrs: mustprogress nounwind uwtable
define linkonce_odr dso_local void @_ZN5vcpkg4SpanIKNS_10StringViewEEC2ILm1EEERAT__S2_(ptr noundef nonnull align 8 dereferenceable(16) %0, ptr noundef nonnull align 8 dereferenceable(16) %1) unnamed_addr #1 comdat align 2 {
  %3 = alloca ptr, align 8
  %4 = alloca ptr, align 8
  store ptr %0, ptr %3, align 8
  store ptr %1, ptr %4, align 8
  %5 = load ptr, ptr %3, align 8
  %6 = getelementptr inbounds %"struct.vcpkg::Span.160", ptr %5, i32 0, i32 0
  %7 = load ptr, ptr %4, align 8
  %8 = getelementptr inbounds [1 x %"struct.vcpkg::StringView"], ptr %7, i64 0, i64 0
  store ptr %8, ptr %6, align 8
  %9 = getelementptr inbounds %"struct.vcpkg::Span.160", ptr %5, i32 0, i32 1
  store i64 1, ptr %9, align 8
  ret void
}

; Function Attrs: mustprogress uwtable
define internal { ptr, i64 } @_ZNK12_GLOBAL__N_129GitVersionDbEntryDeserializer12valid_fieldsEv(ptr noundef nonnull align 8 dereferenceable(8) %0) unnamed_addr #3 align 2 personality ptr @__gxx_personality_v0 {
  %2 = alloca %"struct.vcpkg::Span.160", align 8
  %3 = alloca ptr, align 8
  %4 = alloca %"struct.vcpkg::Span.160", align 8
  %5 = alloca ptr, align 8
  %6 = alloca i32, align 4
  %7 = alloca %"struct.vcpkg::Span.160", align 8
  store ptr %0, ptr %3, align 8
  %8 = load atomic i8, ptr @_ZGVZNK12_GLOBAL__N_129GitVersionDbEntryDeserializer12valid_fieldsEvE5t_git acquire, align 8
  %9 = icmp eq i8 %8, 0
  br i1 %9, label %10, label %30, !prof !29

10:                                               ; preds = %1
  %11 = call i32 @__cxa_guard_acquire(ptr @_ZGVZNK12_GLOBAL__N_129GitVersionDbEntryDeserializer12valid_fieldsEvE5t_git) #2
  %12 = icmp ne i32 %11, 0
  br i1 %12, label %13, label %30

13:                                               ; preds = %10
  %14 = invoke { ptr, i64 } @_ZN5vcpkg27schemed_deserializer_fieldsEv()
          to label %15 unwind label %32

15:                                               ; preds = %13
  %16 = getelementptr inbounds { ptr, i64 }, ptr %4, i32 0, i32 0
  %17 = extractvalue { ptr, i64 } %14, 0
  store ptr %17, ptr %16, align 8
  %18 = getelementptr inbounds { ptr, i64 }, ptr %4, i32 0, i32 1
  %19 = extractvalue { ptr, i64 } %14, 1
  store i64 %19, ptr %18, align 8
  call void @_ZN5vcpkg4SpanIKNS_10StringViewEEC2ILm1EEERAT__S2_(ptr noundef nonnull align 8 dereferenceable(16) %7, ptr noundef nonnull align 8 dereferenceable(16) @_ZZNK12_GLOBAL__N_129GitVersionDbEntryDeserializer12valid_fieldsEvE5u_git) #2
  %20 = getelementptr inbounds { ptr, i64 }, ptr %4, i32 0, i32 0
  %21 = load ptr, ptr %20, align 8
  %22 = getelementptr inbounds { ptr, i64 }, ptr %4, i32 0, i32 1
  %23 = load i64, ptr %22, align 8
  %24 = getelementptr inbounds { ptr, i64 }, ptr %7, i32 0, i32 0
  %25 = load ptr, ptr %24, align 8
  %26 = getelementptr inbounds { ptr, i64 }, ptr %7, i32 0, i32 1
  %27 = load i64, ptr %26, align 8
  invoke void @_ZN5vcpkg4Util7Vectors6concatINS_10StringViewEEESt6vectorIT_SaIS5_EENS_4SpanIKS5_EESA_(ptr dead_on_unwind writable sret(%"class.std::vector.220") align 8 @_ZZNK12_GLOBAL__N_129GitVersionDbEntryDeserializer12valid_fieldsEvE5t_git, ptr %21, i64 %23, ptr %25, i64 %27)
          to label %28 unwind label %32

28:                                               ; preds = %15
  %29 = call i32 @__cxa_atexit(ptr @_ZNSt6vectorIN5vcpkg10StringViewESaIS1_EED2Ev, ptr @_ZZNK12_GLOBAL__N_129GitVersionDbEntryDeserializer12valid_fieldsEvE5t_git, ptr @__dso_handle) #2
  call void @__cxa_guard_release(ptr @_ZGVZNK12_GLOBAL__N_129GitVersionDbEntryDeserializer12valid_fieldsEvE5t_git) #2
  br label %30

30:                                               ; preds = %28, %10, %1
  call void @_ZN5vcpkg4SpanIKNS_10StringViewEEC2IRKSt6vectorIS1_SaIS1_EEPS2_vEEOT_(ptr noundef nonnull align 8 dereferenceable(16) %2, ptr noundef nonnull align 8 dereferenceable(24) @_ZZNK12_GLOBAL__N_129GitVersionDbEntryDeserializer12valid_fieldsEvE5t_git) #2
  %31 = load { ptr, i64 }, ptr %2, align 8
  ret { ptr, i64 } %31

32:                                               ; preds = %15, %13
  %33 = landingpad { ptr, i32 }
          cleanup
  %34 = extractvalue { ptr, i32 } %33, 0
  store ptr %34, ptr %5, align 8
  %35 = extractvalue { ptr, i32 } %33, 1
  store i32 %35, ptr %6, align 4
  call void @__cxa_guard_abort(ptr @_ZGVZNK12_GLOBAL__N_129GitVersionDbEntryDeserializer12valid_fieldsEvE5t_git) #2
  br label %36

36:                                               ; preds = %32
  %37 = load ptr, ptr %5, align 8
  %38 = load i32, ptr %6, align 4
  %39 = insertvalue { ptr, i32 } poison, ptr %37, 0
  %40 = insertvalue { ptr, i32 } %39, i32 %38, 1
  resume { ptr, i32 } %40
}